target datalayout = "e-m:e-p270:32:32-p271:32:32-p272:64:64-i64:64-i128:128-f80:128-n8:16:32:64-S128"
target triple = "x86_64-pc-linux-gnu"

%"class.__gnu_cxx::__normal_iterator.338" = type { ptr }
%"class.tbb::detail::d1::task" = type { ptr, %"class.tbb::detail::d1::task_traits", [6 x i64] }
%"class.tbb::detail::d1::task_traits" = type { i64 }
%"class.tbb::detail::d2::for_each_root_task_base" = type <{ %"class.tbb::detail::d1::task", %"class.__gnu_cxx::__normal_iterator.338", %"class.__gnu_cxx::__normal_iterator.338", ptr, ptr, ptr, [24 x i8] }>

; Function Attrs: mustprogress nounwind
define internal noundef ptr @_ZN3tbb6detail2d223for_each_root_task_baseIN9__gnu_cxx17__normal_iteratorIPPN4mold10ObjectFileINS5_6X86_64EEESt6vectorIS9_SaIS9_EEEEZNS5_L18print_icf_sectionsIS7_EEvRNS5_7ContextIT_EEEUlS9_E_S9_E6cancelERNS0_2d114execution_dataE(ptr noundef nonnull align 64 dereferenceable(105) %0, ptr noundef nonnull align 8 dereferenceable(12) %1) unnamed_addr #4 align 2 {
  %3 = alloca ptr, align 8
  %4 = alloca ptr, align 8
  store ptr %0, ptr %3, align 8, !tbaa !1961
  store ptr %1, ptr %4, align 8, !tbaa !1004
  %5 = load ptr, ptr %3, align 8
  %6 = getelementptr inbounds nuw %"class.tbb::detail::d2::for_each_root_task_base", ptr %5, i32 0, i32 3
  %7 = load ptr, ptr %6, align 16, !tbaa !1963
  %8 = load ptr, ptr %7, align 8, !tbaa !561
  %9 = getelementptr inbounds ptr, ptr %8, i64 1
  %10 = load ptr, ptr %9, align 8
  call void %10(ptr noundef nonnull align 8 dereferenceable(24) %7, i32 noundef 1)
  ret ptr null
}